; Function Attrs: mustprogress nounwind uwtable
define hidden void @_ZN6hermes5irgen11ESTreeIRGen28genScopelessBlockOrStatementEPNS_6ESTree4NodeE(ptr noundef nonnull align 8 dereferenceable(200) %this, ptr noundef %stmt) local_unnamed_addr #0 align 2 {
entry:
  %kind_.i.i.i.i.i.i.i.i = getelementptr inbounds nuw i8, ptr %stmt, i64 16
  %0 = load i32, ptr %kind_.i.i.i.i.i.i.i.i, align 8
  %cmp.i.i.i.i.i.i.i = icmp ne i32 %0, 19
  %tobool.not6 = icmp eq ptr %stmt, null
  %tobool.not = or i1 %tobool.not6, %cmp.i.i.i.i.i.i.i
  br i1 %tobool.not, label %if.end, label %if.then

if.then:                                          ; preds = %entry
  %_body = getelementptr inbounds nuw i8, ptr %stmt, i64 56
  %Next.i.i.i.i = getelementptr inbounds nuw i8, ptr %stmt, i64 64
  %__begin3.sroa.0.07 = load ptr, ptr %Next.i.i.i.i, align 8
  %cmp.i.not8 = icmp eq ptr %__begin3.sroa.0.07, %_body
  br i1 %cmp.i.not8, label %return, label %for.body

for.body:                                         ; preds = %if.then, %for.body
  %__begin3.sroa.0.09 = phi ptr [ %__begin3.sroa.0.0, %for.body ], [ %__begin3.sroa.0.07, %if.then ]
  tail call void @_ZN6hermes5irgen11ESTreeIRGen12genStatementEPNS_6ESTree4NodeENS1_10IsLoopBodyE(ptr noundef nonnull align 8 dereferenceable(200) %this, ptr noundef nonnull %__begin3.sroa.0.09, i32 noundef 0)
  %Next.i.i.i = getelementptr inbounds nuw i8, ptr %__begin3.sroa.0.09, i64 8
  %__begin3.sroa.0.0 = load ptr, ptr %Next.i.i.i, align 8
  %cmp.i.not = icmp eq ptr %__begin3.sroa.0.0, %_body
  br i1 %cmp.i.not, label %return, label %for.body

if.end:                                           ; preds = %entry
  tail call void @_ZN6hermes5irgen11ESTreeIRGen12genStatementEPNS_6ESTree4NodeENS1_10IsLoopBodyE(ptr noundef nonnull align 8 dereferenceable(200) %this, ptr noundef nonnull %stmt, i32 noundef 0)
  br label %return

return:                                           ; preds = %for.body, %if.then, %if.end
  ret void
}